target datalayout = "e-m:e-p270:32:32-p271:32:32-p272:64:64-i64:64-i128:128-f80:128-n8:16:32:64-S128"
target triple = "x86_64-pc-linux-gnu"

%"struct.icu_77::ConditionalCE32" = type <{ [8 x i8], %"class.icu_77::UnicodeString", i32, i32, i32, i32, i32, [4 x i8] }>
%"class.icu_77::UnicodeString" = type { %"class.icu_77::Replaceable", %"union.icu_77::UnicodeString::StackBufferOrFields" }
%"class.icu_77::Replaceable" = type { %"class.icu_77::UObject" }
%"class.icu_77::UObject" = type { ptr }
%"union.icu_77::UnicodeString::StackBufferOrFields" = type { %struct.anon.0, [32 x i8] }
%struct.anon.0 = type { i16, i32, i32, ptr }
%"class.icu_77::CollationDataBuilder" = type { %"class.icu_77::UObject", ptr, ptr, ptr, ptr, %"class.icu_77::UVector32", %"class.icu_77::UVector64", %"class.icu_77::UVector", %"class.icu_77::UnicodeSet", %"class.icu_77::UnicodeString", i32, [4 x i8], %"class.icu_77::UnicodeSet", i8, i8, i8, ptr, ptr }
%"class.icu_77::UVector32" = type { %"class.icu_77::UObject", i32, i32, i32, ptr }
%"class.icu_77::UVector64" = type { %"class.icu_77::UObject", i32, i32, i32, ptr }
%"class.icu_77::UVector" = type { %"class.icu_77::UObject", i32, i32, ptr, ptr, ptr }
%"class.icu_77::UnicodeSet" = type <{ %"class.icu_77::UnicodeFilter", ptr, i32, i32, i8, [7 x i8], ptr, ptr, i32, [4 x i8], ptr, i32, [4 x i8], ptr, ptr, [25 x i32], [4 x i8] }>
%"class.icu_77::UnicodeFilter" = type { %"class.icu_77::UnicodeFunctor", %"class.icu_77::UnicodeMatcher" }
%"class.icu_77::UnicodeFunctor" = type { %"class.icu_77::UObject" }
%"class.icu_77::UnicodeMatcher" = type { ptr }
%"class.icu_77::LocalPointer" = type { %"class.icu_77::LocalPointerBase" }
%"class.icu_77::LocalPointerBase" = type { ptr }

; Function Attrs: inlinehint mustprogress nounwind uwtable
define internal noundef signext i8 @_ZL9U_SUCCESS10UErrorCode(i32 noundef %0) #3 {
  %2 = alloca i32, align 4
  store i32 %0, ptr %2, align 4, !tbaa !97
  %3 = load i32, ptr %2, align 4, !tbaa !97
  %4 = icmp sle i32 %3, 0
  %5 = zext i1 %4 to i8
  ret i8 %5
}

; Function Attrs: mustprogress nounwind uwtable
define linkonce_odr void @_ZN6icu_7716LocalPointerBaseINS_15ConditionalCE32EEC2EPS1_(ptr noundef nonnull align 8 dereferenceable(8) %0, ptr noundef %1) unnamed_addr #1 comdat align 2 {
  %3 = alloca ptr, align 8
  %4 = alloca ptr, align 8
  store ptr %0, ptr %3, align 8, !tbaa !150
  store ptr %1, ptr %4, align 8, !tbaa !9
  %5 = load ptr, ptr %3, align 8
  %6 = getelementptr inbounds nuw %"class.icu_77::LocalPointerBase", ptr %5, i32 0, i32 0
  %7 = load ptr, ptr %4, align 8, !tbaa !9
  store ptr %7, ptr %6, align 8, !tbaa !152
  ret void
}

; Function Attrs: mustprogress nounwind uwtable
define linkonce_odr noundef ptr @_ZN6icu_7716LocalPointerBaseINS_15ConditionalCE32EE6orphanEv(ptr noundef nonnull align 8 dereferenceable(8) %0) #1 comdat align 2 {
  %2 = alloca ptr, align 8
  %3 = alloca ptr, align 8
  store ptr %0, ptr %2, align 8, !tbaa !150
  %4 = load ptr, ptr %2, align 8
  call void @llvm.lifetime.start.p0(i64 8, ptr %3) #11
  %5 = getelementptr inbounds nuw %"class.icu_77::LocalPointerBase", ptr %4, i32 0, i32 0
  %6 = load ptr, ptr %5, align 8, !tbaa !152
  store ptr %6, ptr %3, align 8, !tbaa !9
  %7 = getelementptr inbounds nuw %"class.icu_77::LocalPointerBase", ptr %4, i32 0, i32 0
  store ptr null, ptr %7, align 8, !tbaa !152
  %8 = load ptr, ptr %3, align 8, !tbaa !9
  call void @llvm.lifetime.end.p0(i64 8, ptr %3) #11
  ret ptr %8
}

; Function Attrs: mustprogress uwtable
define linkonce_odr void @_ZN6icu_7712LocalPointerINS_15ConditionalCE32EEC2EPS1_R10UErrorCode(ptr noundef nonnull align 8 dereferenceable(8) %0, ptr noundef %1, ptr noundef nonnull align 4 dereferenceable(4) %2) unnamed_addr #4 comdat align 2 {
  %4 = alloca ptr, align 8
  %5 = alloca ptr, align 8
  %6 = alloca ptr, align 8
  store ptr %0, ptr %4, align 8, !tbaa !148
  store ptr %1, ptr %5, align 8, !tbaa !9
  store ptr %2, ptr %6, align 8, !tbaa !8
  %7 = load ptr, ptr %4, align 8
  %8 = load ptr, ptr %5, align 8, !tbaa !9
  call void @_ZN6icu_7716LocalPointerBaseINS_15ConditionalCE32EEC2EPS1_(ptr noundef nonnull align 8 dereferenceable(8) %7, ptr noundef %8)
  %9 = load ptr, ptr %5, align 8, !tbaa !9
  %10 = icmp eq ptr %9, null
  br i1 %10, label %11, label %18

11:                                               ; preds = %3
  %12 = load ptr, ptr %6, align 8, !tbaa !8
  %13 = load i32, ptr %12, align 4, !tbaa !97
  %14 = call noundef signext i8 @_ZL9U_SUCCESS10UErrorCode(i32 noundef %13)
  %15 = icmp ne i8 %14, 0
  br i1 %15, label %16, label %18

16:                                               ; preds = %11
  %17 = load ptr, ptr %6, align 8, !tbaa !8
  store i32 7, ptr %17, align 4, !tbaa !97
  br label %18

18:                                               ; preds = %16, %11, %3
  ret void
}

; Function Attrs: mustprogress uwtable
define linkonce_odr void @_ZN6icu_7715ConditionalCE32C2ERKNS_13UnicodeStringEj(ptr noundef nonnull align 8 dereferenceable(92) %0, ptr noundef nonnull align 8 dereferenceable(64) %1, i32 noundef %2) unnamed_addr #4 comdat align 2 {
  %4 = alloca ptr, align 8
  %5 = alloca ptr, align 8
  %6 = alloca i32, align 4
  store ptr %0, ptr %4, align 8, !tbaa !9
  store ptr %1, ptr %5, align 8, !tbaa !92
  store i32 %2, ptr %6, align 4, !tbaa !57
  %7 = load ptr, ptr %4, align 8
  %8 = getelementptr inbounds nuw %"struct.icu_77::ConditionalCE32", ptr %7, i32 0, i32 1
  %9 = load ptr, ptr %5, align 8, !tbaa !92
  call void @_ZN6icu_7713UnicodeStringC1ERKS0_(ptr noundef nonnull align 8 dereferenceable(64) %8, ptr noundef nonnull align 8 dereferenceable(64) %9)
  %10 = getelementptr inbounds nuw %"struct.icu_77::ConditionalCE32", ptr %7, i32 0, i32 2
  %11 = load i32, ptr %6, align 4, !tbaa !57
  store i32 %11, ptr %10, align 8, !tbaa !126
  %12 = getelementptr inbounds nuw %"struct.icu_77::ConditionalCE32", ptr %7, i32 0, i32 3
  store i32 1, ptr %12, align 4, !tbaa !123
  %13 = getelementptr inbounds nuw %"struct.icu_77::ConditionalCE32", ptr %7, i32 0, i32 4
  store i32 1, ptr %13, align 8, !tbaa !119
  %14 = getelementptr inbounds nuw %"struct.icu_77::ConditionalCE32", ptr %7, i32 0, i32 5
  store i32 -1, ptr %14, align 4, !tbaa !121
  %15 = getelementptr inbounds nuw %"struct.icu_77::ConditionalCE32", ptr %7, i32 0, i32 6
  store i32 -1, ptr %15, align 8, !tbaa !124
  ret void
}

; Function Attrs: inlinehint mustprogress nounwind uwtable
define linkonce_odr noundef i32 @_ZNK6icu_777UVector4sizeEv(ptr noundef nonnull align 8 dereferenceable(40) %0) #3 comdat align 2 {
  %2 = alloca ptr, align 8
  store ptr %0, ptr %2, align 8, !tbaa !146
  %3 = load ptr, ptr %2, align 8
  %4 = getelementptr inbounds nuw %"class.icu_77::UVector", ptr %3, i32 0, i32 1
  %5 = load i32, ptr %4, align 8, !tbaa !147
  ret i32 %5
}

; Function Attrs: inlinehint mustprogress nounwind uwtable
define internal noundef signext i8 @_ZL9U_FAILURE10UErrorCode(i32 noundef %0) #3 {
  %2 = alloca i32, align 4
  store i32 %0, ptr %2, align 4, !tbaa !97
  %3 = load i32, ptr %2, align 4, !tbaa !97
  %4 = icmp sgt i32 %3, 0
  %5 = zext i1 %4 to i8
  ret i8 %5
}

; Function Attrs: mustprogress uwtable
define noundef i32 @_ZN6icu_7720CollationDataBuilder18addConditionalCE32ERKNS_13UnicodeStringEjR10UErrorCode(ptr noundef nonnull align 8 dereferenceable(640) %0, ptr noundef nonnull align 8 dereferenceable(64) %1, i32 noundef %2, ptr noundef nonnull align 4 dereferenceable(4) %3) #4 align 2 personality ptr @__gxx_personality_v0 {
  %5 = alloca i32, align 4
  %6 = alloca ptr, align 8
  %7 = alloca ptr, align 8
  %8 = alloca i32, align 4
  %9 = alloca ptr, align 8
  %10 = alloca i32, align 4
  %11 = alloca i32, align 4
  %12 = alloca %"class.icu_77::LocalPointer", align 8
  %13 = alloca ptr, align 8
  %14 = alloca i1, align 1
  %15 = alloca ptr, align 8
  %16 = alloca i32, align 4
  store ptr %0, ptr %6, align 8, !tbaa !13
  store ptr %1, ptr %7, align 8, !tbaa !92
  store i32 %2, ptr %8, align 4, !tbaa !57
  store ptr %3, ptr %9, align 8, !tbaa !8
  %17 = load ptr, ptr %6, align 8
  %18 = load ptr, ptr %9, align 8, !tbaa !8
  %19 = load i32, ptr %18, align 4, !tbaa !97
  %20 = call noundef signext i8 @_ZL9U_FAILURE10UErrorCode(i32 noundef %19)
  %21 = icmp ne i8 %20, 0
  br i1 %21, label %22, label %23

22:                                               ; preds = %4
  store i32 -1, ptr %5, align 4
  br label %68

23:                                               ; preds = %4
  call void @llvm.lifetime.start.p0(i64 4, ptr %10) #11
  %24 = getelementptr inbounds nuw %"class.icu_77::CollationDataBuilder", ptr %17, i32 0, i32 7
  %25 = call noundef i32 @_ZNK6icu_777UVector4sizeEv(ptr noundef nonnull align 8 dereferenceable(40) %24)
  store i32 %25, ptr %10, align 4, !tbaa !57
  %26 = load i32, ptr %10, align 4, !tbaa !57
  %27 = icmp sgt i32 %26, 524287
  br i1 %27, label %28, label %30

28:                                               ; preds = %23
  %29 = load ptr, ptr %9, align 8, !tbaa !8
  store i32 15, ptr %29, align 4, !tbaa !97
  store i32 -1, ptr %5, align 4
  store i32 1, ptr %11, align 4
  br label %67

30:                                               ; preds = %23
  call void @llvm.lifetime.start.p0(i64 8, ptr %12) #11
  %31 = call noundef ptr @_ZN6icu_777UMemorynwEm(i64 noundef 96) #11
  %32 = icmp eq ptr %31, null
  store i1 false, ptr %14, align 1
  br i1 %32, label %37, label %33

33:                                               ; preds = %30
  store ptr %31, ptr %13, align 8
  store i1 true, ptr %14, align 1
  %34 = load ptr, ptr %7, align 8, !tbaa !92
  %35 = load i32, ptr %8, align 4, !tbaa !57
  invoke void @_ZN6icu_7715ConditionalCE32C2ERKNS_13UnicodeStringEj(ptr noundef nonnull align 8 dereferenceable(92) %31, ptr noundef nonnull align 8 dereferenceable(64) %34, i32 noundef %35)
          to label %36 unwind label %51

36:                                               ; preds = %33
  br label %37

37:                                               ; preds = %36, %30
  %38 = phi ptr [ %31, %36 ], [ null, %30 ]
  %39 = load ptr, ptr %9, align 8, !tbaa !8
  call void @_ZN6icu_7712LocalPointerINS_15ConditionalCE32EEC2EPS1_R10UErrorCode(ptr noundef nonnull align 8 dereferenceable(8) %12, ptr noundef %38, ptr noundef nonnull align 4 dereferenceable(4) %39)
  %40 = getelementptr inbounds nuw %"class.icu_77::CollationDataBuilder", ptr %17, i32 0, i32 7
  %41 = invoke noundef ptr @_ZN6icu_7716LocalPointerBaseINS_15ConditionalCE32EE6orphanEv(ptr noundef nonnull align 8 dereferenceable(8) %12)
          to label %42 unwind label %59

42:                                               ; preds = %37
  %43 = load ptr, ptr %9, align 8, !tbaa !8
  invoke void @_ZN6icu_777UVector12adoptElementEPvR10UErrorCode(ptr noundef nonnull align 8 dereferenceable(40) %40, ptr noundef %41, ptr noundef nonnull align 4 dereferenceable(4) %43)
          to label %44 unwind label %59

44:                                               ; preds = %42
  %45 = load ptr, ptr %9, align 8, !tbaa !8
  %46 = load i32, ptr %45, align 4, !tbaa !97
  %47 = invoke noundef signext i8 @_ZL9U_FAILURE10UErrorCode(i32 noundef %46)
          to label %48 unwind label %59

48:                                               ; preds = %44
  %49 = icmp ne i8 %47, 0
  br i1 %49, label %50, label %63

50:                                               ; preds = %48
  store i32 -1, ptr %5, align 4
  store i32 1, ptr %11, align 4
  br label %65

51:                                               ; preds = %33
  %52 = landingpad { ptr, i32 }
          cleanup
  %53 = extractvalue { ptr, i32 } %52, 0
  store ptr %53, ptr %15, align 8
  %54 = extractvalue { ptr, i32 } %52, 1
  store i32 %54, ptr %16, align 4
  %55 = load i1, ptr %14, align 1
  br i1 %55, label %56, label %58

56:                                               ; preds = %51
  %57 = load ptr, ptr %13, align 8
  call void @_ZN6icu_777UMemorydlEPv(ptr noundef %57) #11
  br label %58

58:                                               ; preds = %56, %51
  br label %66

59:                                               ; preds = %44, %42, %37
  %60 = landingpad { ptr, i32 }
          cleanup
  %61 = extractvalue { ptr, i32 } %60, 0
  store ptr %61, ptr %15, align 8
  %62 = extractvalue { ptr, i32 } %60, 1
  store i32 %62, ptr %16, align 4
  call void @_ZN6icu_7712LocalPointerINS_15ConditionalCE32EED2Ev(ptr noundef nonnull align 8 dereferenceable(8) %12) #11
  br label %66

63:                                               ; preds = %48
  %64 = load i32, ptr %10, align 4, !tbaa !57
  store i32 %64, ptr %5, align 4
  store i32 1, ptr %11, align 4
  br label %65

65:                                               ; preds = %63, %50
  call void @_ZN6icu_7712LocalPointerINS_15ConditionalCE32EED2Ev(ptr noundef nonnull align 8 dereferenceable(8) %12) #11
  call void @llvm.lifetime.end.p0(i64 8, ptr %12) #11
  br label %67

66:                                               ; preds = %59, %58
  call void @llvm.lifetime.end.p0(i64 8, ptr %12) #11
  call void @llvm.lifetime.end.p0(i64 4, ptr %10) #11
  br label %70

67:                                               ; preds = %65, %28
  call void @llvm.lifetime.end.p0(i64 4, ptr %10) #11
  br label %68

68:                                               ; preds = %67, %22
  %69 = load i32, ptr %5, align 4
  ret i32 %69

70:                                               ; preds = %66
  %71 = load ptr, ptr %15, align 8
  %72 = load i32, ptr %16, align 4
  %73 = insertvalue { ptr, i32 } poison, ptr %71, 0
  %74 = insertvalue { ptr, i32 } %73, i32 %72, 1
  resume { ptr, i32 } %74
}