; Function Attrs: mustprogress uwtable
define noundef range(i32 -2147483648, 524288) i32 @_ZN6icu_7720CollationDataBuilder18addConditionalCE32ERKNS_13UnicodeStringEjR10UErrorCode(ptr noundef nonnull align 8 dereferenceable(640) %0, ptr noundef nonnull align 8 dereferenceable(64) %1, i32 noundef %2, ptr noundef nonnull align 4 dereferenceable(4) %3) local_unnamed_addr #6 align 2 personality ptr @__gxx_personality_v0 {
  %5 = alloca %"class.icu_77::LocalPointer", align 8
  %6 = load i32, ptr %3, align 4, !tbaa !76
  %7 = icmp slt i32 %6, 1
  br i1 %7, label %8, label %35

8:                                                ; preds = %4
  %9 = getelementptr inbounds nuw i8, ptr %0, i64 104
  %10 = getelementptr inbounds nuw i8, ptr %0, i64 112
  %11 = load i32, ptr %10, align 8, !tbaa !134
  %12 = icmp sgt i32 %11, 524287
  br i1 %12, label %13, label %14

13:                                               ; preds = %8
  store i32 15, ptr %3, align 4, !tbaa !76
  br label %35

14:                                               ; preds = %8
  call void @llvm.lifetime.start.p0(i64 8, ptr nonnull %5) #19
  %15 = tail call noundef ptr @_ZN6icu_777UMemorynwEm(i64 noundef 96) #19
  %16 = icmp eq ptr %15, null
  br i1 %16, label %24, label %17

17:                                               ; preds = %14
  %18 = getelementptr inbounds nuw i8, ptr %15, i64 8
  invoke void @_ZN6icu_7713UnicodeStringC1ERKS0_(ptr noundef nonnull align 8 dereferenceable(64) %18, ptr noundef nonnull align 8 dereferenceable(64) %1)
          to label %.thread unwind label %30

.thread:                                          ; preds = %17
  %19 = getelementptr inbounds nuw i8, ptr %15, i64 72
  store i32 %2, ptr %19, align 8, !tbaa !101
  %20 = getelementptr inbounds nuw i8, ptr %15, i64 76
  store i32 1, ptr %20, align 4, !tbaa !98
  %21 = getelementptr inbounds nuw i8, ptr %15, i64 80
  store i32 1, ptr %21, align 8, !tbaa !92
  %22 = getelementptr inbounds nuw i8, ptr %15, i64 84
  store i32 -1, ptr %22, align 4, !tbaa !94
  %23 = getelementptr inbounds nuw i8, ptr %15, i64 88
  store i32 -1, ptr %23, align 8, !tbaa !99
  br label %_ZN6icu_7712LocalPointerINS_15ConditionalCE32EEC2EPS1_R10UErrorCode.exit

24:                                               ; preds = %14
  %25 = load i32, ptr %3, align 4
  %26 = icmp sgt i32 %25, 0
  br i1 %26, label %_ZN6icu_7712LocalPointerINS_15ConditionalCE32EEC2EPS1_R10UErrorCode.exit, label %27

27:                                               ; preds = %24
  store i32 7, ptr %3, align 4, !tbaa !76
  br label %_ZN6icu_7712LocalPointerINS_15ConditionalCE32EEC2EPS1_R10UErrorCode.exit

_ZN6icu_7712LocalPointerINS_15ConditionalCE32EEC2EPS1_R10UErrorCode.exit: ; preds = %.thread, %24, %27
  store ptr null, ptr %5, align 8, !tbaa !135
  invoke void @_ZN6icu_777UVector12adoptElementEPvR10UErrorCode(ptr noundef nonnull align 8 dereferenceable(40) %9, ptr noundef %15, ptr noundef nonnull align 4 dereferenceable(4) %3)
          to label %_ZN6icu_7712LocalPointerINS_15ConditionalCE32EED2Ev.exit unwind label %32

_ZN6icu_7712LocalPointerINS_15ConditionalCE32EED2Ev.exit: ; preds = %_ZN6icu_7712LocalPointerINS_15ConditionalCE32EEC2EPS1_R10UErrorCode.exit
  %28 = load i32, ptr %3, align 4, !tbaa !76
  %29 = icmp slt i32 %28, 1
  %. = select i1 %29, i32 %11, i32 -1
  call void @llvm.lifetime.end.p0(i64 8, ptr nonnull %5) #19
  br label %35

30:                                               ; preds = %17
  %31 = landingpad { ptr, i32 }
          cleanup
  tail call void @_ZN6icu_777UMemorydlEPv(ptr noundef nonnull %15) #19
  br label %34

32:                                               ; preds = %_ZN6icu_7712LocalPointerINS_15ConditionalCE32EEC2EPS1_R10UErrorCode.exit
  %33 = landingpad { ptr, i32 }
          cleanup
  call void @_ZN6icu_7712LocalPointerINS_15ConditionalCE32EED2Ev(ptr noundef nonnull align 8 dereferenceable(8) %5) #19
  br label %34

34:                                               ; preds = %30, %32
  %.pn = phi { ptr, i32 } [ %33, %32 ], [ %31, %30 ]
  call void @llvm.lifetime.end.p0(i64 8, ptr nonnull %5) #19
  resume { ptr, i32 } %.pn

35:                                               ; preds = %13, %_ZN6icu_7712LocalPointerINS_15ConditionalCE32EED2Ev.exit, %4
  %.015 = phi i32 [ -1, %4 ], [ -1, %13 ], [ %., %_ZN6icu_7712LocalPointerINS_15ConditionalCE32EED2Ev.exit ]
  ret i32 %.015
}